; Function Attrs: mustprogress uwtable
define hidden void @_ZN5arith3sls7add_argEjRNS0_4ineqERKlj(ptr nocapture noundef nonnull readonly align 8 dereferenceable(97) %this, i32 noundef %bv, ptr noundef nonnull align 8 dereferenceable(36) %ineq, ptr nocapture noundef nonnull readonly align 8 dereferenceable(8) %c, i32 noundef %v) local_unnamed_addr #5 align 2 {
entry:
  %0 = load i64, ptr %c, align 8
  %1 = load ptr, ptr %ineq, align 8
  %cmp.i = icmp eq ptr %1, null
  br i1 %cmp.i, label %if.then.i, label %lor.lhs.false.i

lor.lhs.false.i:                                  ; preds = %entry
  %arrayidx.i = getelementptr inbounds i8, ptr %1, i64 -4
  %2 = load i32, ptr %arrayidx.i, align 4
  %arrayidx4.i = getelementptr inbounds i8, ptr %1, i64 -8
  %3 = load i32, ptr %arrayidx4.i, align 4
  %cmp5.i = icmp eq i32 %2, %3
  br i1 %cmp5.i, label %if.then.i, label %_ZN6vectorISt4pairIljELb1EjE9push_backEOS1_.exit

if.then.i:                                        ; preds = %lor.lhs.false.i, %entry
  tail call void @_ZN6vectorISt4pairIljELb1EjE13expand_vectorEv(ptr noundef nonnull align 8 dereferenceable(8) %ineq)
  %.pre.i = load ptr, ptr %ineq, align 8
  %arrayidx8.phi.trans.insert.i = getelementptr inbounds i8, ptr %.pre.i, i64 -4
  %.pre1.i = load i32, ptr %arrayidx8.phi.trans.insert.i, align 4
  br label %_ZN6vectorISt4pairIljELb1EjE9push_backEOS1_.exit

_ZN6vectorISt4pairIljELb1EjE9push_backEOS1_.exit: ; preds = %lor.lhs.false.i, %if.then.i
  %4 = phi i32 [ %.pre1.i, %if.then.i ], [ %2, %lor.lhs.false.i ]
  %5 = phi ptr [ %.pre.i, %if.then.i ], [ %1, %lor.lhs.false.i ]
  %idx.ext.i = zext i32 %4 to i64
  %add.ptr.i = getelementptr inbounds %"struct.std::pair.251", ptr %5, i64 %idx.ext.i
  store i64 %0, ptr %add.ptr.i, align 8
  %ref.tmp.sroa.2.0.add.ptr.i.sroa_idx = getelementptr inbounds i8, ptr %add.ptr.i, i64 8
  store i32 %v, ptr %ref.tmp.sroa.2.0.add.ptr.i.sroa_idx, align 8
  %6 = load ptr, ptr %ineq, align 8
  %arrayidx10.i = getelementptr inbounds i8, ptr %6, i64 -4
  %7 = load i32, ptr %arrayidx10.i, align 4
  %inc.i = add i32 %7, 1
  store i32 %inc.i, ptr %arrayidx10.i, align 4
  %8 = load i64, ptr %c, align 8
  %m_vars.i = getelementptr inbounds i8, ptr %this, i64 80
  %9 = load ptr, ptr %m_vars.i, align 8
  %idxprom.i.i = zext i32 %v to i64
  %arrayidx.i.i = getelementptr inbounds %"struct.arith::sls::var_info", ptr %9, i64 %idxprom.i.i
  %10 = load i64, ptr %arrayidx.i.i, align 8
  %mul = mul nsw i64 %10, %8
  %m_args_value = getelementptr inbounds i8, ptr %ineq, i64 24
  %11 = load i64, ptr %m_args_value, align 8
  %add = add nsw i64 %11, %mul
  store i64 %add, ptr %m_args_value, align 8
  %12 = load ptr, ptr %m_vars.i, align 8
  %m_bool_vars = getelementptr inbounds %"struct.arith::sls::var_info", ptr %12, i64 %idxprom.i.i, i32 3
  %13 = load i64, ptr %c, align 8
  %14 = load ptr, ptr %m_bool_vars, align 8
  %cmp.i6 = icmp eq ptr %14, null
  br i1 %cmp.i6, label %if.then.i15, label %lor.lhs.false.i7

lor.lhs.false.i7:                                 ; preds = %_ZN6vectorISt4pairIljELb1EjE9push_backEOS1_.exit
  %arrayidx.i8 = getelementptr inbounds i8, ptr %14, i64 -4
  %15 = load i32, ptr %arrayidx.i8, align 4
  %arrayidx4.i9 = getelementptr inbounds i8, ptr %14, i64 -8
  %16 = load i32, ptr %arrayidx4.i9, align 4
  %cmp5.i10 = icmp eq i32 %15, %16
  br i1 %cmp5.i10, label %if.then.i15, label %_ZN6vectorISt4pairIljELb0EjE9push_backEOS1_.exit

if.then.i15:                                      ; preds = %lor.lhs.false.i7, %_ZN6vectorISt4pairIljELb1EjE9push_backEOS1_.exit
  tail call void @_ZN6vectorISt4pairIljELb0EjE13expand_vectorEv(ptr noundef nonnull align 8 dereferenceable(8) %m_bool_vars)
  %.pre.i16 = load ptr, ptr %m_bool_vars, align 8
  %arrayidx8.phi.trans.insert.i17 = getelementptr inbounds i8, ptr %.pre.i16, i64 -4
  %.pre1.i18 = load i32, ptr %arrayidx8.phi.trans.insert.i17, align 4
  br label %_ZN6vectorISt4pairIljELb0EjE9push_backEOS1_.exit

_ZN6vectorISt4pairIljELb0EjE9push_backEOS1_.exit: ; preds = %lor.lhs.false.i7, %if.then.i15
  %17 = phi i32 [ %.pre1.i18, %if.then.i15 ], [ %15, %lor.lhs.false.i7 ]
  %18 = phi ptr [ %.pre.i16, %if.then.i15 ], [ %14, %lor.lhs.false.i7 ]
  %idx.ext.i11 = zext i32 %17 to i64
  %add.ptr.i12 = getelementptr inbounds %"struct.std::pair.251", ptr %18, i64 %idx.ext.i11
  store i64 %13, ptr %add.ptr.i12, align 8
  %ref.tmp4.sroa.2.0.add.ptr.i12.sroa_idx = getelementptr inbounds i8, ptr %add.ptr.i12, i64 8
  store i32 %bv, ptr %ref.tmp4.sroa.2.0.add.ptr.i12.sroa_idx, align 8
  %19 = load ptr, ptr %m_bool_vars, align 8
  %arrayidx10.i13 = getelementptr inbounds i8, ptr %19, i64 -4
  %20 = load i32, ptr %arrayidx10.i13, align 4
  %inc.i14 = add i32 %20, 1
  store i32 %inc.i14, ptr %arrayidx10.i13, align 4
  ret void
}